; Function Attrs: mustprogress uwtable
define void @_ZNK32pxrInternal_v0_24__pxrReserved__10GfRotation7GetQuatEv(ptr dead_on_unwind noalias writable sret(%"class.pxrInternal_v0_24__pxrReserved__::GfQuatd") align 8 %0, ptr nocapture noundef nonnull readonly align 8 dereferenceable(32) %1) local_unnamed_addr #0 align 2 {
  %3 = alloca double, align 8
  %4 = alloca double, align 8
  %5 = getelementptr inbounds nuw i8, ptr %1, i64 24
  %6 = load double, ptr %5, align 8
  %7 = fmul double %6, 0x3F91DF46A2529D39
  %8 = fmul double %7, 5.000000e-01
  call void @sincos(double noundef %8, ptr noundef nonnull %3, ptr noundef nonnull %4) #19
  %9 = load double, ptr %3, align 8
  %.sroa.0.0.copyload.i = load double, ptr %1, align 8, !noalias !9
  %.sroa.4.0..sroa_idx.i = getelementptr inbounds i8, ptr %1, i64 8
  %.sroa.4.0.copyload.i = load double, ptr %.sroa.4.0..sroa_idx.i, align 8, !noalias !9
  %.sroa.6.0..sroa_idx.i = getelementptr inbounds i8, ptr %1, i64 16
  %.sroa.6.0.copyload.i = load double, ptr %.sroa.6.0..sroa_idx.i, align 8, !noalias !9
  %10 = fmul double %9, %.sroa.0.0.copyload.i
  %11 = fmul double %9, %.sroa.4.0.copyload.i
  %12 = fmul double %9, %.sroa.6.0.copyload.i
  %13 = load double, ptr %4, align 8
  store double %10, ptr %0, align 8
  %.sroa.0.sroa.2.0..sroa_idx = getelementptr inbounds i8, ptr %0, i64 8
  store double %11, ptr %.sroa.0.sroa.2.0..sroa_idx, align 8
  %.sroa.0.sroa.3.0..sroa_idx = getelementptr inbounds i8, ptr %0, i64 16
  store double %12, ptr %.sroa.0.sroa.3.0..sroa_idx, align 8
  %.sroa.2.0..sroa_idx = getelementptr inbounds i8, ptr %0, i64 24
  store double %13, ptr %.sroa.2.0..sroa_idx, align 8
  %14 = call noundef double @_ZN32pxrInternal_v0_24__pxrReserved__7GfQuatd9NormalizeEd(ptr noundef nonnull align 8 dereferenceable(32) %0, double noundef 1.000000e-10)
  ret void
}